target datalayout = "e-m:e-p270:32:32-p271:32:32-p272:64:64-i64:64-i128:128-f80:128-n8:16:32:64-S128"
target triple = "x86_64-pc-linux-gnu"

%struct._zval_struct = type { %union._zend_value, %union.anon.3, %union.anon.6 }
%union._zend_value = type { i64 }
%union.anon.3 = type { i32 }
%union.anon.6 = type { i32 }
%struct._zend_refcounted_h = type { i32, %union.anon }
%union.anon = type { i32 }
%struct._zend_refcounted = type { %struct._zend_refcounted_h }
%struct.anon.4 = type { i8, i8, %union.anon.5 }
%union.anon.5 = type { i16 }

; Function Attrs: alwaysinline nounwind uwtable
define internal i32 @zend_gc_addref(ptr noundef %0) #3 {
  %2 = alloca ptr, align 8
  store ptr %0, ptr %2, align 8, !tbaa !109
  br label %3

3:                                                ; preds = %1
  br label %4

4:                                                ; preds = %3
  %5 = load ptr, ptr %2, align 8, !tbaa !109
  %6 = getelementptr inbounds nuw %struct._zend_refcounted_h, ptr %5, i32 0, i32 0
  %7 = load i32, ptr %6, align 4, !tbaa !111
  %8 = add i32 %7, 1
  store i32 %8, ptr %6, align 4, !tbaa !111
  ret i32 %8
}

; Function Attrs: alwaysinline nounwind uwtable
define internal zeroext i8 @zval_get_type(ptr noundef %0) #3 {
  %2 = alloca ptr, align 8
  store ptr %0, ptr %2, align 8, !tbaa !44
  %3 = load ptr, ptr %2, align 8, !tbaa !44
  %4 = getelementptr inbounds nuw %struct._zval_struct, ptr %3, i32 0, i32 1
  %5 = getelementptr inbounds nuw %struct.anon.4, ptr %4, i32 0, i32 0
  %6 = load i8, ptr %5, align 8, !tbaa !45
  ret i8 %6
}

; Function Attrs: nounwind uwtable
define hidden void @zflf_preg_replace_3(ptr noundef %0, ptr noundef %1, ptr noundef %2, ptr noundef %3) #0 {
  %5 = alloca ptr, align 8
  %6 = alloca ptr, align 8
  %7 = alloca ptr, align 8
  %8 = alloca ptr, align 8
  %9 = alloca ptr, align 8
  %10 = alloca ptr, align 8
  %11 = alloca ptr, align 8
  %12 = alloca ptr, align 8
  %13 = alloca ptr, align 8
  %14 = alloca ptr, align 8
  %15 = alloca %struct._zval_struct, align 8
  %16 = alloca %struct._zval_struct, align 8
  %17 = alloca %struct._zval_struct, align 8
  %18 = alloca ptr, align 8
  %19 = alloca ptr, align 8
  %20 = alloca ptr, align 8
  %21 = alloca i32, align 4
  %22 = alloca ptr, align 8
  %23 = alloca ptr, align 8
  %24 = alloca ptr, align 8
  %25 = alloca i32, align 4
  %26 = alloca ptr, align 8
  %27 = alloca ptr, align 8
  %28 = alloca ptr, align 8
  %29 = alloca i32, align 4
  store ptr %0, ptr %5, align 8, !tbaa !44
  store ptr %1, ptr %6, align 8, !tbaa !44
  store ptr %2, ptr %7, align 8, !tbaa !44
  store ptr %3, ptr %8, align 8, !tbaa !44
  call void @llvm.lifetime.start.p0(i64 8, ptr %9) #17
  call void @llvm.lifetime.start.p0(i64 8, ptr %10) #17
  call void @llvm.lifetime.start.p0(i64 8, ptr %11) #17
  call void @llvm.lifetime.start.p0(i64 8, ptr %12) #17
  call void @llvm.lifetime.start.p0(i64 8, ptr %13) #17
  call void @llvm.lifetime.start.p0(i64 8, ptr %14) #17
  call void @llvm.lifetime.start.p0(i64 16, ptr %15) #17
  call void @llvm.lifetime.start.p0(i64 16, ptr %16) #17
  call void @llvm.lifetime.start.p0(i64 16, ptr %17) #17
  %30 = load ptr, ptr %6, align 8, !tbaa !44
  %31 = call zeroext i8 @zval_get_type(ptr noundef %30)
  %32 = zext i8 %31 to i32
  %33 = icmp eq i32 %32, 6
  br i1 %33, label %34, label %38

34:                                               ; preds = %4
  store ptr null, ptr %12, align 8, !tbaa !67
  %35 = load ptr, ptr %6, align 8, !tbaa !44
  %36 = getelementptr inbounds nuw %struct._zval_struct, ptr %35, i32 0, i32 0
  %37 = load ptr, ptr %36, align 8, !tbaa !45
  store ptr %37, ptr %9, align 8, !tbaa !4
  br label %87

38:                                               ; preds = %4
  %39 = load ptr, ptr %6, align 8, !tbaa !44
  %40 = call zeroext i8 @zval_get_type(ptr noundef %39)
  %41 = zext i8 %40 to i32
  %42 = icmp eq i32 %41, 7
  %43 = xor i1 %42, true
  %44 = xor i1 %43, true
  %45 = zext i1 %44 to i32
  %46 = sext i32 %45 to i64
  %47 = call i64 @llvm.expect.i64(i64 %46, i64 1)
  %48 = icmp ne i64 %47, 0
  br i1 %48, label %49, label %53

49:                                               ; preds = %38
  %50 = load ptr, ptr %6, align 8, !tbaa !44
  %51 = getelementptr inbounds nuw %struct._zval_struct, ptr %50, i32 0, i32 0
  %52 = load ptr, ptr %51, align 8, !tbaa !45
  store ptr %52, ptr %12, align 8, !tbaa !67
  store ptr null, ptr %9, align 8, !tbaa !4
  br label %86

53:                                               ; preds = %38
  store ptr null, ptr %12, align 8, !tbaa !67
  br label %54

54:                                               ; preds = %53
  call void @llvm.lifetime.start.p0(i64 8, ptr %18) #17
  store ptr %15, ptr %18, align 8, !tbaa !44
  call void @llvm.lifetime.start.p0(i64 8, ptr %19) #17
  %55 = load ptr, ptr %6, align 8, !tbaa !44
  store ptr %55, ptr %19, align 8, !tbaa !44
  call void @llvm.lifetime.start.p0(i64 8, ptr %20) #17
  %56 = load ptr, ptr %19, align 8, !tbaa !44
  %57 = getelementptr inbounds nuw %struct._zval_struct, ptr %56, i32 0, i32 0
  %58 = load ptr, ptr %57, align 8, !tbaa !45
  store ptr %58, ptr %20, align 8, !tbaa !107
  call void @llvm.lifetime.start.p0(i64 4, ptr %21) #17
  %59 = load ptr, ptr %19, align 8, !tbaa !44
  %60 = getelementptr inbounds nuw %struct._zval_struct, ptr %59, i32 0, i32 1
  %61 = load i32, ptr %60, align 8, !tbaa !45
  store i32 %61, ptr %21, align 4, !tbaa !13
  br label %62

62:                                               ; preds = %54
  %63 = load ptr, ptr %20, align 8, !tbaa !107
  %64 = load ptr, ptr %18, align 8, !tbaa !44
  %65 = getelementptr inbounds nuw %struct._zval_struct, ptr %64, i32 0, i32 0
  store ptr %63, ptr %65, align 8, !tbaa !45
  %66 = load i32, ptr %21, align 4, !tbaa !13
  %67 = load ptr, ptr %18, align 8, !tbaa !44
  %68 = getelementptr inbounds nuw %struct._zval_struct, ptr %67, i32 0, i32 1
  store i32 %66, ptr %68, align 8, !tbaa !45
  br label %69

69:                                               ; preds = %62
  br label %70

70:                                               ; preds = %69
  %71 = load i32, ptr %21, align 4, !tbaa !13
  %72 = and i32 %71, 65280
  %73 = icmp ne i32 %72, 0
  br i1 %73, label %74, label %78

74:                                               ; preds = %70
  %75 = load ptr, ptr %20, align 8, !tbaa !107
  %76 = getelementptr inbounds nuw %struct._zend_refcounted, ptr %75, i32 0, i32 0
  %77 = call i32 @zend_gc_addref(ptr noundef %76)
  br label %78

78:                                               ; preds = %74, %70
  call void @llvm.lifetime.end.p0(i64 4, ptr %21) #17
  call void @llvm.lifetime.end.p0(i64 8, ptr %20) #17
  call void @llvm.lifetime.end.p0(i64 8, ptr %19) #17
  call void @llvm.lifetime.end.p0(i64 8, ptr %18) #17
  br label %79

79:                                               ; preds = %78
  br label %80

80:                                               ; preds = %79
  store ptr %15, ptr %6, align 8, !tbaa !44
  %81 = load ptr, ptr %6, align 8, !tbaa !44
  %82 = call zeroext i1 @zend_flf_parse_arg_str_slow(ptr noundef %81, ptr noundef %9, i32 noundef 1)
  br i1 %82, label %85, label %83

83:                                               ; preds = %80
  %84 = load ptr, ptr %6, align 8, !tbaa !44
  call void @zend_wrong_parameter_type_error(i32 noundef 1, i32 noundef 26, ptr noundef %84)
  br label %211

85:                                               ; preds = %80
  br label %86

86:                                               ; preds = %85, %49
  br label %87

87:                                               ; preds = %86, %34
  %88 = load ptr, ptr %7, align 8, !tbaa !44
  %89 = call zeroext i8 @zval_get_type(ptr noundef %88)
  %90 = zext i8 %89 to i32
  %91 = icmp eq i32 %90, 6
  br i1 %91, label %92, label %96

92:                                               ; preds = %87
  store ptr null, ptr %13, align 8, !tbaa !67
  %93 = load ptr, ptr %7, align 8, !tbaa !44
  %94 = getelementptr inbounds nuw %struct._zval_struct, ptr %93, i32 0, i32 0
  %95 = load ptr, ptr %94, align 8, !tbaa !45
  store ptr %95, ptr %10, align 8, !tbaa !4
  br label %145

96:                                               ; preds = %87
  %97 = load ptr, ptr %7, align 8, !tbaa !44
  %98 = call zeroext i8 @zval_get_type(ptr noundef %97)
  %99 = zext i8 %98 to i32
  %100 = icmp eq i32 %99, 7
  %101 = xor i1 %100, true
  %102 = xor i1 %101, true
  %103 = zext i1 %102 to i32
  %104 = sext i32 %103 to i64
  %105 = call i64 @llvm.expect.i64(i64 %104, i64 1)
  %106 = icmp ne i64 %105, 0
  br i1 %106, label %107, label %111

107:                                              ; preds = %96
  %108 = load ptr, ptr %7, align 8, !tbaa !44
  %109 = getelementptr inbounds nuw %struct._zval_struct, ptr %108, i32 0, i32 0
  %110 = load ptr, ptr %109, align 8, !tbaa !45
  store ptr %110, ptr %13, align 8, !tbaa !67
  store ptr null, ptr %10, align 8, !tbaa !4
  br label %144

111:                                              ; preds = %96
  store ptr null, ptr %13, align 8, !tbaa !67
  br label %112

112:                                              ; preds = %111
  call void @llvm.lifetime.start.p0(i64 8, ptr %22) #17
  store ptr %16, ptr %22, align 8, !tbaa !44
  call void @llvm.lifetime.start.p0(i64 8, ptr %23) #17
  %113 = load ptr, ptr %7, align 8, !tbaa !44
  store ptr %113, ptr %23, align 8, !tbaa !44
  call void @llvm.lifetime.start.p0(i64 8, ptr %24) #17
  %114 = load ptr, ptr %23, align 8, !tbaa !44
  %115 = getelementptr inbounds nuw %struct._zval_struct, ptr %114, i32 0, i32 0
  %116 = load ptr, ptr %115, align 8, !tbaa !45
  store ptr %116, ptr %24, align 8, !tbaa !107
  call void @llvm.lifetime.start.p0(i64 4, ptr %25) #17
  %117 = load ptr, ptr %23, align 8, !tbaa !44
  %118 = getelementptr inbounds nuw %struct._zval_struct, ptr %117, i32 0, i32 1
  %119 = load i32, ptr %118, align 8, !tbaa !45
  store i32 %119, ptr %25, align 4, !tbaa !13
  br label %120

120:                                              ; preds = %112
  %121 = load ptr, ptr %24, align 8, !tbaa !107
  %122 = load ptr, ptr %22, align 8, !tbaa !44
  %123 = getelementptr inbounds nuw %struct._zval_struct, ptr %122, i32 0, i32 0
  store ptr %121, ptr %123, align 8, !tbaa !45
  %124 = load i32, ptr %25, align 4, !tbaa !13
  %125 = load ptr, ptr %22, align 8, !tbaa !44
  %126 = getelementptr inbounds nuw %struct._zval_struct, ptr %125, i32 0, i32 1
  store i32 %124, ptr %126, align 8, !tbaa !45
  br label %127

127:                                              ; preds = %120
  br label %128

128:                                              ; preds = %127
  %129 = load i32, ptr %25, align 4, !tbaa !13
  %130 = and i32 %129, 65280
  %131 = icmp ne i32 %130, 0
  br i1 %131, label %132, label %136

132:                                              ; preds = %128
  %133 = load ptr, ptr %24, align 8, !tbaa !107
  %134 = getelementptr inbounds nuw %struct._zend_refcounted, ptr %133, i32 0, i32 0
  %135 = call i32 @zend_gc_addref(ptr noundef %134)
  br label %136

136:                                              ; preds = %132, %128
  call void @llvm.lifetime.end.p0(i64 4, ptr %25) #17
  call void @llvm.lifetime.end.p0(i64 8, ptr %24) #17
  call void @llvm.lifetime.end.p0(i64 8, ptr %23) #17
  call void @llvm.lifetime.end.p0(i64 8, ptr %22) #17
  br label %137

137:                                              ; preds = %136
  br label %138

138:                                              ; preds = %137
  store ptr %16, ptr %7, align 8, !tbaa !44
  %139 = load ptr, ptr %7, align 8, !tbaa !44
  %140 = call zeroext i1 @zend_flf_parse_arg_str_slow(ptr noundef %139, ptr noundef %10, i32 noundef 2)
  br i1 %140, label %143, label %141

141:                                              ; preds = %138
  %142 = load ptr, ptr %7, align 8, !tbaa !44
  call void @zend_wrong_parameter_type_error(i32 noundef 2, i32 noundef 26, ptr noundef %142)
  br label %211

143:                                              ; preds = %138
  br label %144

144:                                              ; preds = %143, %107
  br label %145

145:                                              ; preds = %144, %92
  %146 = load ptr, ptr %8, align 8, !tbaa !44
  %147 = call zeroext i8 @zval_get_type(ptr noundef %146)
  %148 = zext i8 %147 to i32
  %149 = icmp eq i32 %148, 6
  br i1 %149, label %150, label %154

150:                                              ; preds = %145
  store ptr null, ptr %14, align 8, !tbaa !67
  %151 = load ptr, ptr %8, align 8, !tbaa !44
  %152 = getelementptr inbounds nuw %struct._zval_struct, ptr %151, i32 0, i32 0
  %153 = load ptr, ptr %152, align 8, !tbaa !45
  store ptr %153, ptr %11, align 8, !tbaa !4
  br label %203

154:                                              ; preds = %145
  %155 = load ptr, ptr %8, align 8, !tbaa !44
  %156 = call zeroext i8 @zval_get_type(ptr noundef %155)
  %157 = zext i8 %156 to i32
  %158 = icmp eq i32 %157, 7
  %159 = xor i1 %158, true
  %160 = xor i1 %159, true
  %161 = zext i1 %160 to i32
  %162 = sext i32 %161 to i64
  %163 = call i64 @llvm.expect.i64(i64 %162, i64 1)
  %164 = icmp ne i64 %163, 0
  br i1 %164, label %165, label %169

165:                                              ; preds = %154
  %166 = load ptr, ptr %8, align 8, !tbaa !44
  %167 = getelementptr inbounds nuw %struct._zval_struct, ptr %166, i32 0, i32 0
  %168 = load ptr, ptr %167, align 8, !tbaa !45
  store ptr %168, ptr %14, align 8, !tbaa !67
  store ptr null, ptr %11, align 8, !tbaa !4
  br label %202

169:                                              ; preds = %154
  store ptr null, ptr %14, align 8, !tbaa !67
  br label %170

170:                                              ; preds = %169
  call void @llvm.lifetime.start.p0(i64 8, ptr %26) #17
  store ptr %17, ptr %26, align 8, !tbaa !44
  call void @llvm.lifetime.start.p0(i64 8, ptr %27) #17
  %171 = load ptr, ptr %8, align 8, !tbaa !44
  store ptr %171, ptr %27, align 8, !tbaa !44
  call void @llvm.lifetime.start.p0(i64 8, ptr %28) #17
  %172 = load ptr, ptr %27, align 8, !tbaa !44
  %173 = getelementptr inbounds nuw %struct._zval_struct, ptr %172, i32 0, i32 0
  %174 = load ptr, ptr %173, align 8, !tbaa !45
  store ptr %174, ptr %28, align 8, !tbaa !107
  call void @llvm.lifetime.start.p0(i64 4, ptr %29) #17
  %175 = load ptr, ptr %27, align 8, !tbaa !44
  %176 = getelementptr inbounds nuw %struct._zval_struct, ptr %175, i32 0, i32 1
  %177 = load i32, ptr %176, align 8, !tbaa !45
  store i32 %177, ptr %29, align 4, !tbaa !13
  br label %178

178:                                              ; preds = %170
  %179 = load ptr, ptr %28, align 8, !tbaa !107
  %180 = load ptr, ptr %26, align 8, !tbaa !44
  %181 = getelementptr inbounds nuw %struct._zval_struct, ptr %180, i32 0, i32 0
  store ptr %179, ptr %181, align 8, !tbaa !45
  %182 = load i32, ptr %29, align 4, !tbaa !13
  %183 = load ptr, ptr %26, align 8, !tbaa !44
  %184 = getelementptr inbounds nuw %struct._zval_struct, ptr %183, i32 0, i32 1
  store i32 %182, ptr %184, align 8, !tbaa !45
  br label %185

185:                                              ; preds = %178
  br label %186

186:                                              ; preds = %185
  %187 = load i32, ptr %29, align 4, !tbaa !13
  %188 = and i32 %187, 65280
  %189 = icmp ne i32 %188, 0
  br i1 %189, label %190, label %194

190:                                              ; preds = %186
  %191 = load ptr, ptr %28, align 8, !tbaa !107
  %192 = getelementptr inbounds nuw %struct._zend_refcounted, ptr %191, i32 0, i32 0
  %193 = call i32 @zend_gc_addref(ptr noundef %192)
  br label %194

194:                                              ; preds = %190, %186
  call void @llvm.lifetime.end.p0(i64 4, ptr %29) #17
  call void @llvm.lifetime.end.p0(i64 8, ptr %28) #17
  call void @llvm.lifetime.end.p0(i64 8, ptr %27) #17
  call void @llvm.lifetime.end.p0(i64 8, ptr %26) #17
  br label %195

195:                                              ; preds = %194
  br label %196

196:                                              ; preds = %195
  store ptr %17, ptr %8, align 8, !tbaa !44
  %197 = load ptr, ptr %8, align 8, !tbaa !44
  %198 = call zeroext i1 @zend_flf_parse_arg_str_slow(ptr noundef %197, ptr noundef %11, i32 noundef 3)
  br i1 %198, label %201, label %199

199:                                              ; preds = %196
  %200 = load ptr, ptr %8, align 8, !tbaa !44
  call void @zend_wrong_parameter_type_error(i32 noundef 3, i32 noundef 26, ptr noundef %200)
  br label %211

201:                                              ; preds = %196
  br label %202

202:                                              ; preds = %201, %165
  br label %203

203:                                              ; preds = %202, %150
  %204 = load ptr, ptr %5, align 8, !tbaa !44
  %205 = load ptr, ptr %12, align 8, !tbaa !67
  %206 = load ptr, ptr %9, align 8, !tbaa !4
  %207 = load ptr, ptr %13, align 8, !tbaa !67
  %208 = load ptr, ptr %10, align 8, !tbaa !4
  %209 = load ptr, ptr %14, align 8, !tbaa !67
  %210 = load ptr, ptr %11, align 8, !tbaa !4
  call void @_preg_replace_common(ptr noundef %204, ptr noundef %205, ptr noundef %206, ptr noundef %207, ptr noundef %208, ptr noundef %209, ptr noundef %210, i64 noundef -1, ptr noundef null, i1 noundef zeroext false)
  br label %211

211:                                              ; preds = %203, %199, %141, %83
  %212 = load ptr, ptr %6, align 8, !tbaa !44
  %213 = icmp eq ptr %212, %15
  %214 = xor i1 %213, true
  %215 = xor i1 %214, true
  %216 = zext i1 %215 to i32
  %217 = sext i32 %216 to i64
  %218 = call i64 @llvm.expect.i64(i64 %217, i64 0)
  %219 = icmp ne i64 %218, 0
  br i1 %219, label %220, label %222

220:                                              ; preds = %211
  %221 = load ptr, ptr %6, align 8, !tbaa !44
  call void @zval_ptr_dtor(ptr noundef %221)
  br label %222

222:                                              ; preds = %220, %211
  %223 = load ptr, ptr %7, align 8, !tbaa !44
  %224 = icmp eq ptr %223, %16
  %225 = xor i1 %224, true
  %226 = xor i1 %225, true
  %227 = zext i1 %226 to i32
  %228 = sext i32 %227 to i64
  %229 = call i64 @llvm.expect.i64(i64 %228, i64 0)
  %230 = icmp ne i64 %229, 0
  br i1 %230, label %231, label %233

231:                                              ; preds = %222
  %232 = load ptr, ptr %7, align 8, !tbaa !44
  call void @zval_ptr_dtor(ptr noundef %232)
  br label %233

233:                                              ; preds = %231, %222
  %234 = load ptr, ptr %8, align 8, !tbaa !44
  %235 = icmp eq ptr %234, %17
  %236 = xor i1 %235, true
  %237 = xor i1 %236, true
  %238 = zext i1 %237 to i32
  %239 = sext i32 %238 to i64
  %240 = call i64 @llvm.expect.i64(i64 %239, i64 0)
  %241 = icmp ne i64 %240, 0
  br i1 %241, label %242, label %244

242:                                              ; preds = %233
  %243 = load ptr, ptr %8, align 8, !tbaa !44
  call void @zval_ptr_dtor(ptr noundef %243)
  br label %244

244:                                              ; preds = %242, %233
  call void @llvm.lifetime.end.p0(i64 16, ptr %17) #17
  call void @llvm.lifetime.end.p0(i64 16, ptr %16) #17
  call void @llvm.lifetime.end.p0(i64 16, ptr %15) #17
  call void @llvm.lifetime.end.p0(i64 8, ptr %14) #17
  call void @llvm.lifetime.end.p0(i64 8, ptr %13) #17
  call void @llvm.lifetime.end.p0(i64 8, ptr %12) #17
  call void @llvm.lifetime.end.p0(i64 8, ptr %11) #17
  call void @llvm.lifetime.end.p0(i64 8, ptr %10) #17
  call void @llvm.lifetime.end.p0(i64 8, ptr %9) #17
  ret void
}