; Function Attrs: nounwind uwtable
define hidden void @zflf_preg_replace_3(ptr noundef writeonly captures(none) %0, ptr noundef %1, ptr noundef %2, ptr noundef %3) #0 {
  %5 = alloca ptr, align 8
  %6 = alloca ptr, align 8
  %7 = alloca ptr, align 8
  %8 = alloca %struct._zval_struct, align 8
  %9 = alloca %struct._zval_struct, align 8
  %10 = alloca %struct._zval_struct, align 8
  call void @llvm.lifetime.start.p0(i64 8, ptr nonnull %5) #24
  call void @llvm.lifetime.start.p0(i64 8, ptr nonnull %6) #24
  call void @llvm.lifetime.start.p0(i64 8, ptr nonnull %7) #24
  call void @llvm.lifetime.start.p0(i64 16, ptr nonnull %8) #24
  call void @llvm.lifetime.start.p0(i64 16, ptr nonnull %9) #24
  call void @llvm.lifetime.start.p0(i64 16, ptr nonnull %10) #24
  %11 = getelementptr inbounds nuw i8, ptr %1, i64 8
  %12 = load i8, ptr %11, align 8, !tbaa !11
  %13 = load ptr, ptr %1, align 8, !tbaa !11
  switch i8 %12, label %15 [
    i8 6, label %.sink.split
    i8 7, label %14
  ], !prof !105

14:                                               ; preds = %4
  br label %.sink.split

15:                                               ; preds = %4
  %16 = load i32, ptr %11, align 8, !tbaa !11
  store ptr %13, ptr %8, align 8, !tbaa !11
  %17 = getelementptr inbounds nuw i8, ptr %8, i64 8
  store i32 %16, ptr %17, align 8, !tbaa !11
  %18 = and i32 %16, 65280
  %.not = icmp eq i32 %18, 0
  br i1 %.not, label %22, label %19

19:                                               ; preds = %15
  %20 = load i32, ptr %13, align 4, !tbaa !12
  %21 = add i32 %20, 1
  store i32 %21, ptr %13, align 4, !tbaa !12
  br label %22

22:                                               ; preds = %19, %15
  %23 = call zeroext i1 @zend_flf_parse_arg_str_slow(ptr noundef nonnull %8, ptr noundef nonnull %5, i32 noundef 1) #24
  br i1 %23, label %24, label %.thread

.thread:                                          ; preds = %22
  call void @zend_wrong_parameter_type_error(i32 noundef 1, i32 noundef 26, ptr noundef nonnull %8) #24
  br label %61

.sink.split:                                      ; preds = %4, %14
  %.sink = phi ptr [ null, %14 ], [ %13, %4 ]
  %.058.ph = phi ptr [ %13, %14 ], [ null, %4 ]
  store ptr %.sink, ptr %5, align 8, !tbaa !96
  br label %24

24:                                               ; preds = %.sink.split, %22
  %.058 = phi ptr [ null, %22 ], [ %.058.ph, %.sink.split ]
  %.0 = phi ptr [ %8, %22 ], [ %1, %.sink.split ]
  %25 = getelementptr inbounds nuw i8, ptr %2, i64 8
  %26 = load i8, ptr %25, align 8, !tbaa !11
  %27 = load ptr, ptr %2, align 8, !tbaa !11
  switch i8 %26, label %29 [
    i8 6, label %.sink.split71
    i8 7, label %28
  ], !prof !105

28:                                               ; preds = %24
  br label %.sink.split71

29:                                               ; preds = %24
  %30 = load i32, ptr %25, align 8, !tbaa !11
  store ptr %27, ptr %9, align 8, !tbaa !11
  %31 = getelementptr inbounds nuw i8, ptr %9, i64 8
  store i32 %30, ptr %31, align 8, !tbaa !11
  %32 = and i32 %30, 65280
  %.not61 = icmp eq i32 %32, 0
  br i1 %.not61, label %36, label %33

33:                                               ; preds = %29
  %34 = load i32, ptr %27, align 4, !tbaa !12
  %35 = add i32 %34, 1
  store i32 %35, ptr %27, align 4, !tbaa !12
  br label %36

36:                                               ; preds = %33, %29
  %37 = call zeroext i1 @zend_flf_parse_arg_str_slow(ptr noundef nonnull %9, ptr noundef nonnull %6, i32 noundef 2) #24
  br i1 %37, label %39, label %38

38:                                               ; preds = %36
  call void @zend_wrong_parameter_type_error(i32 noundef 2, i32 noundef 26, ptr noundef nonnull %9) #24
  br label %59

.sink.split71:                                    ; preds = %24, %28
  %.sink72 = phi ptr [ null, %28 ], [ %27, %24 ]
  %.059.ph = phi ptr [ %27, %28 ], [ null, %24 ]
  store ptr %.sink72, ptr %6, align 8, !tbaa !96
  br label %39

39:                                               ; preds = %.sink.split71, %36
  %.059 = phi ptr [ null, %36 ], [ %.059.ph, %.sink.split71 ]
  %.155 = phi ptr [ %9, %36 ], [ %2, %.sink.split71 ]
  %40 = getelementptr inbounds nuw i8, ptr %3, i64 8
  %41 = load i8, ptr %40, align 8, !tbaa !11
  %42 = load ptr, ptr %3, align 8, !tbaa !11
  switch i8 %41, label %45 [
    i8 6, label %43
    i8 7, label %44
  ], !prof !105

43:                                               ; preds = %39
  store ptr %42, ptr %7, align 8, !tbaa !96
  br label %55

44:                                               ; preds = %39
  store ptr null, ptr %7, align 8, !tbaa !96
  br label %55

45:                                               ; preds = %39
  %46 = load i32, ptr %40, align 8, !tbaa !11
  store ptr %42, ptr %10, align 8, !tbaa !11
  %47 = getelementptr inbounds nuw i8, ptr %10, i64 8
  store i32 %46, ptr %47, align 8, !tbaa !11
  %48 = and i32 %46, 65280
  %.not62 = icmp eq i32 %48, 0
  br i1 %.not62, label %52, label %49

49:                                               ; preds = %45
  %50 = load i32, ptr %42, align 4, !tbaa !12
  %51 = add i32 %50, 1
  store i32 %51, ptr %42, align 4, !tbaa !12
  br label %52

52:                                               ; preds = %49, %45
  %53 = call zeroext i1 @zend_flf_parse_arg_str_slow(ptr noundef nonnull %10, ptr noundef nonnull %7, i32 noundef 3) #24
  br i1 %53, label %._crit_edge, label %54

._crit_edge:                                      ; preds = %52
  %.pre = load ptr, ptr %7, align 8, !tbaa !96
  br label %55

54:                                               ; preds = %52
  call void @zend_wrong_parameter_type_error(i32 noundef 3, i32 noundef 26, ptr noundef nonnull %10) #24
  br label %59

55:                                               ; preds = %._crit_edge, %44, %43
  %56 = phi ptr [ %42, %43 ], [ null, %44 ], [ %.pre, %._crit_edge ]
  %.060 = phi ptr [ null, %43 ], [ %42, %44 ], [ null, %._crit_edge ]
  %.157 = phi ptr [ %3, %43 ], [ %3, %44 ], [ %10, %._crit_edge ]
  %57 = load ptr, ptr %5, align 8, !tbaa !96
  %58 = load ptr, ptr %6, align 8, !tbaa !96
  call fastcc void @_preg_replace_common(ptr noundef %0, ptr noundef %.058, ptr noundef %57, ptr noundef %.059, ptr noundef %58, ptr noundef %.060, ptr noundef %56, i64 noundef -1, ptr noundef null, i1 noundef zeroext false)
  br label %59

59:                                               ; preds = %55, %54, %38
  %.056 = phi ptr [ %.157, %55 ], [ %10, %54 ], [ %3, %38 ]
  %.054 = phi ptr [ %.155, %55 ], [ %.155, %54 ], [ %9, %38 ]
  %60 = icmp eq ptr %.0, %8
  br i1 %60, label %61, label %62, !prof !106

61:                                               ; preds = %.thread, %59
  %.170 = phi ptr [ %8, %.thread ], [ %.0, %59 ]
  %.05469 = phi ptr [ %2, %.thread ], [ %.054, %59 ]
  %.05667 = phi ptr [ %3, %.thread ], [ %.056, %59 ]
  call void @zval_ptr_dtor(ptr noundef nonnull %.170) #24
  br label %62

62:                                               ; preds = %61, %59
  %.05468 = phi ptr [ %.05469, %61 ], [ %.054, %59 ]
  %.05666 = phi ptr [ %.05667, %61 ], [ %.056, %59 ]
  %63 = icmp eq ptr %.05468, %9
  br i1 %63, label %64, label %65, !prof !47

64:                                               ; preds = %62
  call void @zval_ptr_dtor(ptr noundef %.05468) #24
  br label %65

65:                                               ; preds = %64, %62
  %66 = icmp eq ptr %.05666, %10
  br i1 %66, label %67, label %68, !prof !47

67:                                               ; preds = %65
  call void @zval_ptr_dtor(ptr noundef %.05666) #24
  br label %68

68:                                               ; preds = %67, %65
  call void @llvm.lifetime.end.p0(i64 16, ptr nonnull %10) #24
  call void @llvm.lifetime.end.p0(i64 16, ptr nonnull %9) #24
  call void @llvm.lifetime.end.p0(i64 16, ptr nonnull %8) #24
  call void @llvm.lifetime.end.p0(i64 8, ptr nonnull %7) #24
  call void @llvm.lifetime.end.p0(i64 8, ptr nonnull %6) #24
  call void @llvm.lifetime.end.p0(i64 8, ptr nonnull %5) #24
  ret void
}